target datalayout = "e-m:e-p270:32:32-p271:32:32-p272:64:64-i64:64-i128:128-f80:128-n8:16:32:64-S128"
target triple = "x86_64-pc-linux-gnu"

%struct.jpeg_compress_struct = type { ptr, ptr, ptr, ptr, i32, i32, ptr, i32, i32, i32, i32, double, i32, i32, i32, ptr, [4 x ptr], [4 x ptr], [4 x ptr], [16 x i8], [16 x i8], [16 x i8], i32, ptr, i32, i32, i32, i32, i32, i32, i32, i32, i32, i8, i8, i8, i16, i16, i32, i32, i32, i32, i32, i32, i32, [4 x ptr], i32, i32, i32, [10 x i32], i32, i32, i32, i32, ptr, ptr, ptr, ptr, ptr, ptr, ptr, ptr, ptr, ptr, i32 }
%struct.lhuff_entropy_encoder = type { %struct.jpeg_entropy_encoder, %struct.savable_state, i32, i32, [4 x ptr], [10 x ptr], [4 x ptr], [10 x ptr], [10 x ptr], i32, [10 x %struct.lhe_input_ptr_info], [10 x i32] }
%struct.jpeg_entropy_encoder = type { ptr, ptr, ptr, ptr }
%struct.savable_state = type { i64, i32 }
%struct.lhe_input_ptr_info = type { i32, i32, i32 }
%struct.jpeg_error_mgr = type { ptr, ptr, ptr, ptr, ptr, i32, %union.anon, i32, i64, ptr, i32, ptr, i32, i32 }
%union.anon = type { [8 x i32], [48 x i8] }

; Function Attrs: nounwind uwtable
define internal i32 @encode_mcus_gather(ptr noundef %0, ptr noundef %1, i32 noundef %2, i32 noundef %3, i32 noundef %4) #0 {
  %6 = alloca ptr, align 8
  %7 = alloca ptr, align 8
  %8 = alloca i32, align 4
  %9 = alloca i32, align 4
  %10 = alloca i32, align 4
  %11 = alloca ptr, align 8
  %12 = alloca i32, align 4
  %13 = alloca i32, align 4
  %14 = alloca i32, align 4
  %15 = alloca i32, align 4
  %16 = alloca i32, align 4
  %17 = alloca i32, align 4
  %18 = alloca i32, align 4
  %19 = alloca i32, align 4
  %20 = alloca ptr, align 8
  store ptr %0, ptr %6, align 8, !tbaa !3
  store ptr %1, ptr %7, align 8, !tbaa !69
  store i32 %2, ptr %8, align 4, !tbaa !35
  store i32 %3, ptr %9, align 4, !tbaa !35
  store i32 %4, ptr %10, align 4, !tbaa !35
  call void @llvm.lifetime.start.p0(i64 8, ptr %11) #6
  %21 = load ptr, ptr %6, align 8, !tbaa !3
  %22 = getelementptr inbounds nuw %struct.jpeg_compress_struct, ptr %21, i32 0, i32 62
  %23 = load ptr, ptr %22, align 8, !tbaa !30
  store ptr %23, ptr %11, align 8, !tbaa !29
  call void @llvm.lifetime.start.p0(i64 4, ptr %12) #6
  call void @llvm.lifetime.start.p0(i64 4, ptr %13) #6
  call void @llvm.lifetime.start.p0(i64 4, ptr %14) #6
  call void @llvm.lifetime.start.p0(i64 4, ptr %15) #6
  call void @llvm.lifetime.start.p0(i64 4, ptr %16) #6
  call void @llvm.lifetime.start.p0(i64 4, ptr %17) #6
  %24 = load ptr, ptr %6, align 8, !tbaa !3
  %25 = getelementptr inbounds nuw %struct.jpeg_compress_struct, ptr %24, i32 0, i32 30
  %26 = load i32, ptr %25, align 8, !tbaa !66
  %27 = icmp ne i32 %26, 0
  br i1 %27, label %28, label %44

28:                                               ; preds = %5
  %29 = load ptr, ptr %11, align 8, !tbaa !29
  %30 = getelementptr inbounds nuw %struct.lhuff_entropy_encoder, ptr %29, i32 0, i32 2
  %31 = load i32, ptr %30, align 8, !tbaa !67
  %32 = icmp eq i32 %31, 0
  br i1 %32, label %33, label %39

33:                                               ; preds = %28
  %34 = load ptr, ptr %6, align 8, !tbaa !3
  %35 = getelementptr inbounds nuw %struct.jpeg_compress_struct, ptr %34, i32 0, i32 30
  %36 = load i32, ptr %35, align 8, !tbaa !66
  %37 = load ptr, ptr %11, align 8, !tbaa !29
  %38 = getelementptr inbounds nuw %struct.lhuff_entropy_encoder, ptr %37, i32 0, i32 2
  store i32 %36, ptr %38, align 8, !tbaa !67
  br label %39

39:                                               ; preds = %33, %28
  %40 = load ptr, ptr %11, align 8, !tbaa !29
  %41 = getelementptr inbounds nuw %struct.lhuff_entropy_encoder, ptr %40, i32 0, i32 2
  %42 = load i32, ptr %41, align 8, !tbaa !67
  %43 = add i32 %42, -1
  store i32 %43, ptr %41, align 8, !tbaa !67
  br label %44

44:                                               ; preds = %39, %5
  store i32 0, ptr %16, align 4, !tbaa !35
  br label %45

45:                                               ; preds = %94, %44
  %46 = load i32, ptr %16, align 4, !tbaa !35
  %47 = load ptr, ptr %11, align 8, !tbaa !29
  %48 = getelementptr inbounds nuw %struct.lhuff_entropy_encoder, ptr %47, i32 0, i32 9
  %49 = load i32, ptr %48, align 8, !tbaa !63
  %50 = icmp slt i32 %46, %49
  br i1 %50, label %51, label %97

51:                                               ; preds = %45
  %52 = load ptr, ptr %11, align 8, !tbaa !29
  %53 = getelementptr inbounds nuw %struct.lhuff_entropy_encoder, ptr %52, i32 0, i32 10
  %54 = load i32, ptr %16, align 4, !tbaa !35
  %55 = sext i32 %54 to i64
  %56 = getelementptr inbounds [10 x %struct.lhe_input_ptr_info], ptr %53, i64 0, i64 %55
  %57 = getelementptr inbounds nuw %struct.lhe_input_ptr_info, ptr %56, i32 0, i32 0
  %58 = load i32, ptr %57, align 4, !tbaa !55
  store i32 %58, ptr %13, align 4, !tbaa !35
  %59 = load ptr, ptr %11, align 8, !tbaa !29
  %60 = getelementptr inbounds nuw %struct.lhuff_entropy_encoder, ptr %59, i32 0, i32 10
  %61 = load i32, ptr %16, align 4, !tbaa !35
  %62 = sext i32 %61 to i64
  %63 = getelementptr inbounds [10 x %struct.lhe_input_ptr_info], ptr %60, i64 0, i64 %62
  %64 = getelementptr inbounds nuw %struct.lhe_input_ptr_info, ptr %63, i32 0, i32 1
  %65 = load i32, ptr %64, align 4, !tbaa !57
  store i32 %65, ptr %14, align 4, !tbaa !35
  %66 = load ptr, ptr %11, align 8, !tbaa !29
  %67 = getelementptr inbounds nuw %struct.lhuff_entropy_encoder, ptr %66, i32 0, i32 10
  %68 = load i32, ptr %16, align 4, !tbaa !35
  %69 = sext i32 %68 to i64
  %70 = getelementptr inbounds [10 x %struct.lhe_input_ptr_info], ptr %67, i64 0, i64 %69
  %71 = getelementptr inbounds nuw %struct.lhe_input_ptr_info, ptr %70, i32 0, i32 2
  %72 = load i32, ptr %71, align 4, !tbaa !59
  store i32 %72, ptr %15, align 4, !tbaa !35
  %73 = load ptr, ptr %7, align 8, !tbaa !69
  %74 = load i32, ptr %13, align 4, !tbaa !35
  %75 = sext i32 %74 to i64
  %76 = getelementptr inbounds ptr, ptr %73, i64 %75
  %77 = load ptr, ptr %76, align 8, !tbaa !71
  %78 = load i32, ptr %8, align 4, !tbaa !35
  %79 = load i32, ptr %14, align 4, !tbaa !35
  %80 = add i32 %78, %79
  %81 = zext i32 %80 to i64
  %82 = getelementptr inbounds nuw ptr, ptr %77, i64 %81
  %83 = load ptr, ptr %82, align 8, !tbaa !73
  %84 = load i32, ptr %9, align 4, !tbaa !35
  %85 = load i32, ptr %15, align 4, !tbaa !35
  %86 = mul i32 %84, %85
  %87 = zext i32 %86 to i64
  %88 = getelementptr inbounds nuw i32, ptr %83, i64 %87
  %89 = load ptr, ptr %11, align 8, !tbaa !29
  %90 = getelementptr inbounds nuw %struct.lhuff_entropy_encoder, ptr %89, i32 0, i32 8
  %91 = load i32, ptr %16, align 4, !tbaa !35
  %92 = sext i32 %91 to i64
  %93 = getelementptr inbounds [10 x ptr], ptr %90, i64 0, i64 %92
  store ptr %88, ptr %93, align 8, !tbaa !73
  br label %94

94:                                               ; preds = %51
  %95 = load i32, ptr %16, align 4, !tbaa !35
  %96 = add nsw i32 %95, 1
  store i32 %96, ptr %16, align 4, !tbaa !35
  br label %45, !llvm.loop !75

97:                                               ; preds = %45
  store i32 0, ptr %17, align 4, !tbaa !35
  br label %98

98:                                               ; preds = %177, %97
  %99 = load i32, ptr %17, align 4, !tbaa !35
  %100 = load i32, ptr %10, align 4, !tbaa !35
  %101 = icmp ult i32 %99, %100
  br i1 %101, label %102, label %180

102:                                              ; preds = %98
  store i32 0, ptr %12, align 4, !tbaa !35
  br label %103

103:                                              ; preds = %173, %102
  %104 = load i32, ptr %12, align 4, !tbaa !35
  %105 = load ptr, ptr %6, align 8, !tbaa !3
  %106 = getelementptr inbounds nuw %struct.jpeg_compress_struct, ptr %105, i32 0, i32 48
  %107 = load i32, ptr %106, align 8, !tbaa !52
  %108 = icmp slt i32 %104, %107
  br i1 %108, label %109, label %176

109:                                              ; preds = %103
  call void @llvm.lifetime.start.p0(i64 4, ptr %18) #6
  call void @llvm.lifetime.start.p0(i64 4, ptr %19) #6
  call void @llvm.lifetime.start.p0(i64 8, ptr %20) #6
  %110 = load ptr, ptr %11, align 8, !tbaa !29
  %111 = getelementptr inbounds nuw %struct.lhuff_entropy_encoder, ptr %110, i32 0, i32 7
  %112 = load i32, ptr %12, align 4, !tbaa !35
  %113 = sext i32 %112 to i64
  %114 = getelementptr inbounds [10 x ptr], ptr %111, i64 0, i64 %113
  %115 = load ptr, ptr %114, align 8, !tbaa !36
  store ptr %115, ptr %20, align 8, !tbaa !36
  %116 = load ptr, ptr %11, align 8, !tbaa !29
  %117 = getelementptr inbounds nuw %struct.lhuff_entropy_encoder, ptr %116, i32 0, i32 8
  %118 = load ptr, ptr %11, align 8, !tbaa !29
  %119 = getelementptr inbounds nuw %struct.lhuff_entropy_encoder, ptr %118, i32 0, i32 11
  %120 = load i32, ptr %12, align 4, !tbaa !35
  %121 = sext i32 %120 to i64
  %122 = getelementptr inbounds [10 x i32], ptr %119, i64 0, i64 %121
  %123 = load i32, ptr %122, align 4, !tbaa !35
  %124 = sext i32 %123 to i64
  %125 = getelementptr inbounds [10 x ptr], ptr %117, i64 0, i64 %124
  %126 = load ptr, ptr %125, align 8, !tbaa !73
  %127 = getelementptr inbounds nuw i32, ptr %126, i32 1
  store ptr %127, ptr %125, align 8, !tbaa !73
  %128 = load i32, ptr %126, align 4, !tbaa !35
  store i32 %128, ptr %18, align 4, !tbaa !35
  %129 = load i32, ptr %18, align 4, !tbaa !35
  %130 = and i32 %129, 32768
  %131 = icmp ne i32 %130, 0
  br i1 %131, label %132, label %140

132:                                              ; preds = %109
  %133 = load i32, ptr %18, align 4, !tbaa !35
  %134 = sub nsw i32 0, %133
  %135 = and i32 %134, 32767
  store i32 %135, ptr %18, align 4, !tbaa !35
  %136 = load i32, ptr %18, align 4, !tbaa !35
  %137 = icmp eq i32 %136, 0
  br i1 %137, label %138, label %139

138:                                              ; preds = %132
  store i32 32768, ptr %18, align 4, !tbaa !35
  br label %139

139:                                              ; preds = %138, %132
  br label %143

140:                                              ; preds = %109
  %141 = load i32, ptr %18, align 4, !tbaa !35
  %142 = and i32 %141, 32767
  store i32 %142, ptr %18, align 4, !tbaa !35
  br label %143

143:                                              ; preds = %140, %139
  store i32 0, ptr %19, align 4, !tbaa !35
  br label %144

144:                                              ; preds = %147, %143
  %145 = load i32, ptr %18, align 4, !tbaa !35
  %146 = icmp ne i32 %145, 0
  br i1 %146, label %147, label %152

147:                                              ; preds = %144
  %148 = load i32, ptr %19, align 4, !tbaa !35
  %149 = add nsw i32 %148, 1
  store i32 %149, ptr %19, align 4, !tbaa !35
  %150 = load i32, ptr %18, align 4, !tbaa !35
  %151 = ashr i32 %150, 1
  store i32 %151, ptr %18, align 4, !tbaa !35
  br label %144, !llvm.loop !76

152:                                              ; preds = %144
  %153 = load i32, ptr %19, align 4, !tbaa !35
  %154 = icmp sgt i32 %153, 16
  br i1 %154, label %155, label %166

155:                                              ; preds = %152
  %156 = load ptr, ptr %6, align 8, !tbaa !3
  %157 = getelementptr inbounds nuw %struct.jpeg_compress_struct, ptr %156, i32 0, i32 0
  %158 = load ptr, ptr %157, align 8, !tbaa !45
  %159 = getelementptr inbounds nuw %struct.jpeg_error_mgr, ptr %158, i32 0, i32 5
  store i32 6, ptr %159, align 8, !tbaa !46
  %160 = load ptr, ptr %6, align 8, !tbaa !3
  %161 = getelementptr inbounds nuw %struct.jpeg_compress_struct, ptr %160, i32 0, i32 0
  %162 = load ptr, ptr %161, align 8, !tbaa !45
  %163 = getelementptr inbounds nuw %struct.jpeg_error_mgr, ptr %162, i32 0, i32 0
  %164 = load ptr, ptr %163, align 8, !tbaa !50
  %165 = load ptr, ptr %6, align 8, !tbaa !3
  call void %164(ptr noundef %165)
  br label %166

166:                                              ; preds = %155, %152
  %167 = load ptr, ptr %20, align 8, !tbaa !36
  %168 = load i32, ptr %19, align 4, !tbaa !35
  %169 = sext i32 %168 to i64
  %170 = getelementptr inbounds i64, ptr %167, i64 %169
  %171 = load i64, ptr %170, align 8, !tbaa !77
  %172 = add nsw i64 %171, 1
  store i64 %172, ptr %170, align 8, !tbaa !77
  call void @llvm.lifetime.end.p0(i64 8, ptr %20) #6
  call void @llvm.lifetime.end.p0(i64 4, ptr %19) #6
  call void @llvm.lifetime.end.p0(i64 4, ptr %18) #6
  br label %173

173:                                              ; preds = %166
  %174 = load i32, ptr %12, align 4, !tbaa !35
  %175 = add nsw i32 %174, 1
  store i32 %175, ptr %12, align 4, !tbaa !35
  br label %103, !llvm.loop !78

176:                                              ; preds = %103
  br label %177

177:                                              ; preds = %176
  %178 = load i32, ptr %17, align 4, !tbaa !35
  %179 = add i32 %178, 1
  store i32 %179, ptr %17, align 4, !tbaa !35
  br label %98, !llvm.loop !79

180:                                              ; preds = %98
  %181 = load i32, ptr %10, align 4, !tbaa !35
  call void @llvm.lifetime.end.p0(i64 4, ptr %17) #6
  call void @llvm.lifetime.end.p0(i64 4, ptr %16) #6
  call void @llvm.lifetime.end.p0(i64 4, ptr %15) #6
  call void @llvm.lifetime.end.p0(i64 4, ptr %14) #6
  call void @llvm.lifetime.end.p0(i64 4, ptr %13) #6
  call void @llvm.lifetime.end.p0(i64 4, ptr %12) #6
  call void @llvm.lifetime.end.p0(i64 8, ptr %11) #6
  ret i32 %181
}