; Function Attrs: nofree norecurse nosync nounwind memory(readwrite, inaccessiblemem: none) uwtable
define internal noundef i32 @encode_mcus_gather(ptr noundef readonly captures(none) %0, ptr noundef readonly captures(none) %1, i32 noundef %2, i32 noundef %3, i32 noundef returned %4) #2 {
  %6 = getelementptr inbounds nuw i8, ptr %0, i64 496
  %7 = load ptr, ptr %6, align 8, !tbaa !27
  %8 = getelementptr inbounds nuw i8, ptr %0, i64 280
  %9 = load i32, ptr %8, align 8, !tbaa !65
  %.not = icmp eq i32 %9, 0
  br i1 %.not, label %15, label %10

10:                                               ; preds = %5
  %11 = getelementptr inbounds nuw i8, ptr %7, i64 48
  %12 = load i32, ptr %11, align 8, !tbaa !66
  %13 = icmp eq i32 %12, 0
  %spec.select = select i1 %13, i32 %9, i32 %12
  %14 = add i32 %spec.select, -1
  store i32 %14, ptr %11, align 8, !tbaa !66
  br label %15

15:                                               ; preds = %10, %5
  %16 = getelementptr inbounds nuw i8, ptr %7, i64 360
  %17 = load i32, ptr %16, align 8, !tbaa !62
  %18 = icmp sgt i32 %17, 0
  br i1 %18, label %.lr.ph, label %.preheader55

.lr.ph:                                           ; preds = %15
  %19 = getelementptr inbounds nuw i8, ptr %7, i64 364
  %20 = getelementptr inbounds nuw i8, ptr %7, i64 280
  %wide.trip.count = zext nneg i32 %17 to i64
  br label %28

.preheader55:                                     ; preds = %28, %15
  %.not66 = icmp eq i32 %4, 0
  br i1 %.not66, label %._crit_edge65, label %.preheader.lr.ph

.preheader.lr.ph:                                 ; preds = %.preheader55
  %21 = getelementptr inbounds nuw i8, ptr %0, i64 368
  %22 = getelementptr inbounds nuw i8, ptr %7, i64 200
  %23 = getelementptr inbounds nuw i8, ptr %7, i64 280
  %24 = getelementptr inbounds nuw i8, ptr %7, i64 484
  %25 = load i32, ptr %21, align 8, !tbaa !42
  %26 = icmp sgt i32 %25, 0
  br i1 %26, label %.preheader.preheader, label %._crit_edge65

.preheader.preheader:                             ; preds = %.preheader.lr.ph
  %27 = zext nneg i32 %25 to i64
  br label %.lr.ph62.preheader

28:                                               ; preds = %.lr.ph, %28
  %indvars.iv = phi i64 [ 0, %.lr.ph ], [ %indvars.iv.next, %28 ]
  %29 = getelementptr inbounds nuw [10 x %struct.lhe_input_ptr_info], ptr %19, i64 0, i64 %indvars.iv
  %30 = load i32, ptr %29, align 4, !tbaa !54
  %31 = getelementptr inbounds nuw i8, ptr %29, i64 4
  %32 = load i32, ptr %31, align 4, !tbaa !56
  %33 = getelementptr inbounds nuw i8, ptr %29, i64 8
  %34 = load i32, ptr %33, align 4, !tbaa !57
  %35 = sext i32 %30 to i64
  %36 = getelementptr inbounds ptr, ptr %1, i64 %35
  %37 = load ptr, ptr %36, align 8, !tbaa !68
  %38 = add i32 %32, %2
  %39 = zext i32 %38 to i64
  %40 = getelementptr inbounds nuw ptr, ptr %37, i64 %39
  %41 = load ptr, ptr %40, align 8, !tbaa !70
  %42 = mul i32 %34, %3
  %43 = zext i32 %42 to i64
  %44 = getelementptr inbounds nuw i32, ptr %41, i64 %43
  %45 = getelementptr inbounds nuw [10 x ptr], ptr %20, i64 0, i64 %indvars.iv
  store ptr %44, ptr %45, align 8, !tbaa !70
  %indvars.iv.next = add nuw nsw i64 %indvars.iv, 1
  %exitcond.not = icmp eq i64 %indvars.iv.next, %wide.trip.count
  br i1 %exitcond.not, label %.preheader55, label %28, !llvm.loop !72

.lr.ph62.preheader:                               ; preds = %._crit_edge63, %.preheader.preheader
  %.04964 = phi i32 [ %69, %._crit_edge63 ], [ 0, %.preheader.preheader ]
  br label %.lr.ph62

.lr.ph62:                                         ; preds = %.lr.ph62.preheader, %._crit_edge
  %indvars.iv69 = phi i64 [ 0, %.lr.ph62.preheader ], [ %indvars.iv.next70, %._crit_edge ]
  %46 = getelementptr inbounds nuw [10 x ptr], ptr %22, i64 0, i64 %indvars.iv69
  %47 = load ptr, ptr %46, align 8, !tbaa !33
  %48 = getelementptr inbounds nuw [10 x i32], ptr %24, i64 0, i64 %indvars.iv69
  %49 = load i32, ptr %48, align 4, !tbaa !50
  %50 = sext i32 %49 to i64
  %51 = getelementptr inbounds [10 x ptr], ptr %23, i64 0, i64 %50
  %52 = load ptr, ptr %51, align 8, !tbaa !70
  %53 = getelementptr inbounds nuw i8, ptr %52, i64 4
  store ptr %53, ptr %51, align 8, !tbaa !70
  %54 = load i32, ptr %52, align 4, !tbaa !50
  %55 = and i32 %54, 32768
  %.not53 = icmp eq i32 %55, 0
  br i1 %.not53, label %60, label %56

56:                                               ; preds = %.lr.ph62
  %57 = sub nsw i32 0, %54
  %58 = and i32 %57, 32767
  %59 = icmp eq i32 %58, 0
  %spec.select76 = select i1 %59, i32 32768, i32 %58
  br label %.lr.ph60.preheader

60:                                               ; preds = %.lr.ph62
  %61 = and i32 %54, 32767
  %.not5457 = icmp eq i32 %61, 0
  br i1 %.not5457, label %._crit_edge, label %.lr.ph60.preheader

.lr.ph60.preheader:                               ; preds = %56, %60
  %.04875 = phi i32 [ %61, %60 ], [ %spec.select76, %56 ]
  %62 = tail call range(i32 0, 33) i32 @llvm.ctlz.i32(i32 %.04875, i1 true)
  %63 = sub nuw nsw i32 32, %62
  %64 = zext nneg i32 %63 to i64
  br label %._crit_edge

._crit_edge:                                      ; preds = %60, %.lr.ph60.preheader
  %.047.lcssa = phi i64 [ 0, %60 ], [ %64, %.lr.ph60.preheader ]
  %65 = getelementptr inbounds nuw i64, ptr %47, i64 %.047.lcssa
  %66 = load i64, ptr %65, align 8, !tbaa !73
  %67 = add nsw i64 %66, 1
  store i64 %67, ptr %65, align 8, !tbaa !73
  %indvars.iv.next70 = add nuw nsw i64 %indvars.iv69, 1
  %68 = icmp samesign ult i64 %indvars.iv.next70, %27
  br i1 %68, label %.lr.ph62, label %._crit_edge63, !llvm.loop !74

._crit_edge63:                                    ; preds = %._crit_edge
  %69 = add nuw i32 %.04964, 1
  %exitcond72.not = icmp eq i32 %69, %4
  br i1 %exitcond72.not, label %._crit_edge65, label %.lr.ph62.preheader, !llvm.loop !75

._crit_edge65:                                    ; preds = %._crit_edge63, %.preheader.lr.ph, %.preheader55
  ret i32 %4
}